target datalayout = "e-m:e-p270:32:32-p271:32:32-p272:64:64-i64:64-i128:128-f80:128-n8:16:32:64-S128"
target triple = "x86_64-pc-linux-gnu"

@.str.21 = private unnamed_addr constant [24 x i8] c"local_preload_libraries\00", align 1
@.str.22 = private unnamed_addr constant [12 x i8] c"search_path\00", align 1
@.str.23 = private unnamed_addr constant [26 x i8] c"session_preload_libraries\00", align 1
@.str.24 = private unnamed_addr constant [25 x i8] c"shared_preload_libraries\00", align 1
@.str.25 = private unnamed_addr constant [17 x i8] c"temp_tablespaces\00", align 1
@.str.26 = private unnamed_addr constant [24 x i8] c"unix_socket_directories\00", align 1

; Function Attrs: nounwind uwtable
define dso_local zeroext i1 @variable_is_guc_list_quote(ptr noundef %0) #0 {
  %2 = alloca i1, align 1
  %3 = alloca ptr, align 8
  store ptr %0, ptr %3, align 8
  %4 = load ptr, ptr %3, align 8
  %5 = call i32 @pg_strcasecmp(ptr noundef %4, ptr noundef @.str.21)
  %6 = icmp eq i32 %5, 0
  br i1 %6, label %27, label %7

7:                                                ; preds = %1
  %8 = load ptr, ptr %3, align 8
  %9 = call i32 @pg_strcasecmp(ptr noundef %8, ptr noundef @.str.22)
  %10 = icmp eq i32 %9, 0
  br i1 %10, label %27, label %11

11:                                               ; preds = %7
  %12 = load ptr, ptr %3, align 8
  %13 = call i32 @pg_strcasecmp(ptr noundef %12, ptr noundef @.str.23)
  %14 = icmp eq i32 %13, 0
  br i1 %14, label %27, label %15

15:                                               ; preds = %11
  %16 = load ptr, ptr %3, align 8
  %17 = call i32 @pg_strcasecmp(ptr noundef %16, ptr noundef @.str.24)
  %18 = icmp eq i32 %17, 0
  br i1 %18, label %27, label %19

19:                                               ; preds = %15
  %20 = load ptr, ptr %3, align 8
  %21 = call i32 @pg_strcasecmp(ptr noundef %20, ptr noundef @.str.25)
  %22 = icmp eq i32 %21, 0
  br i1 %22, label %27, label %23

23:                                               ; preds = %19
  %24 = load ptr, ptr %3, align 8
  %25 = call i32 @pg_strcasecmp(ptr noundef %24, ptr noundef @.str.26)
  %26 = icmp eq i32 %25, 0
  br i1 %26, label %27, label %28

27:                                               ; preds = %23, %19, %15, %11, %7, %1
  store i1 true, ptr %2, align 1
  br label %29

28:                                               ; preds = %23
  store i1 false, ptr %2, align 1
  br label %29

29:                                               ; preds = %28, %27
  %30 = load i1, ptr %2, align 1
  ret i1 %30
}