; Function Attrs: nounwind uwtable
define dso_local zeroext i1 @variable_is_guc_list_quote(ptr noundef %0) local_unnamed_addr #0 {
  %2 = tail call i32 @pg_strcasecmp(ptr noundef %0, ptr noundef nonnull @.str.21) #8
  %3 = icmp eq i32 %2, 0
  br i1 %3, label %19, label %4

4:                                                ; preds = %1
  %5 = tail call i32 @pg_strcasecmp(ptr noundef %0, ptr noundef nonnull @.str.22) #8
  %6 = icmp eq i32 %5, 0
  br i1 %6, label %19, label %7

7:                                                ; preds = %4
  %8 = tail call i32 @pg_strcasecmp(ptr noundef %0, ptr noundef nonnull @.str.23) #8
  %9 = icmp eq i32 %8, 0
  br i1 %9, label %19, label %10

10:                                               ; preds = %7
  %11 = tail call i32 @pg_strcasecmp(ptr noundef %0, ptr noundef nonnull @.str.24) #8
  %12 = icmp eq i32 %11, 0
  br i1 %12, label %19, label %13

13:                                               ; preds = %10
  %14 = tail call i32 @pg_strcasecmp(ptr noundef %0, ptr noundef nonnull @.str.25) #8
  %15 = icmp eq i32 %14, 0
  br i1 %15, label %19, label %16

16:                                               ; preds = %13
  %17 = tail call i32 @pg_strcasecmp(ptr noundef %0, ptr noundef nonnull @.str.26) #8
  %18 = icmp eq i32 %17, 0
  br label %19

19:                                               ; preds = %16, %1, %4, %7, %10, %13
  %.0 = phi i1 [ true, %13 ], [ true, %10 ], [ true, %7 ], [ true, %4 ], [ true, %1 ], [ %18, %16 ]
  ret i1 %.0
}